target datalayout = "e-m:e-p270:32:32-p271:32:32-p272:64:64-i64:64-i128:128-f80:128-n8:16:32:64-S128"
target triple = "x86_64-unknown-linux-gnu"

%"class.Assimp::DefaultIOStream" = type { %"class.Assimp::IOStream", ptr, %"class.std::__cxx11::basic_string", i64 }
%"class.Assimp::IOStream" = type { ptr }
%"class.std::__cxx11::basic_string" = type { %"struct.std::__cxx11::basic_string<char>::_Alloc_hider", i64, %union.anon }
%"struct.std::__cxx11::basic_string<char>::_Alloc_hider" = type { ptr }
%union.anon = type { i64, [8 x i8] }

; Function Attrs: mustprogress uwtable
define noundef i64 @_ZN6Assimp15DefaultIOStream5WriteEPKvmm(ptr noundef nonnull align 8 dereferenceable(56) %this, ptr noundef %pvBuffer, i64 noundef %pSize, i64 noundef %pCount) unnamed_addr #5 align 2 {
entry:
  %this.addr = alloca ptr, align 8
  %pvBuffer.addr = alloca ptr, align 8
  %pSize.addr = alloca i64, align 8
  %pCount.addr = alloca i64, align 8
  store ptr %this, ptr %this.addr, align 8
  store ptr %pvBuffer, ptr %pvBuffer.addr, align 8
  store i64 %pSize, ptr %pSize.addr, align 8
  store i64 %pCount, ptr %pCount.addr, align 8
  %this1 = load ptr, ptr %this.addr, align 8
  %mFile = getelementptr inbounds %"class.Assimp::DefaultIOStream", ptr %this1, i32 0, i32 1
  %0 = load ptr, ptr %mFile, align 8
  %tobool = icmp ne ptr %0, null
  br i1 %tobool, label %cond.true, label %cond.false

cond.true:                                        ; preds = %entry
  %1 = load ptr, ptr %pvBuffer.addr, align 8
  %2 = load i64, ptr %pSize.addr, align 8
  %3 = load i64, ptr %pCount.addr, align 8
  %mFile2 = getelementptr inbounds %"class.Assimp::DefaultIOStream", ptr %this1, i32 0, i32 1
  %4 = load ptr, ptr %mFile2, align 8
  %call = call i64 @fwrite(ptr noundef %1, i64 noundef %2, i64 noundef %3, ptr noundef %4)
  br label %cond.end

cond.false:                                       ; preds = %entry
  br label %cond.end

cond.end:                                         ; preds = %cond.false, %cond.true
  %cond = phi i64 [ %call, %cond.true ], [ 0, %cond.false ]
  ret i64 %cond
}