; Function Attrs: mustprogress nofree nounwind uwtable
define noundef i64 @_ZN6Assimp15DefaultIOStream5WriteEPKvmm(ptr nocapture noundef nonnull readonly align 8 dereferenceable(56) %this, ptr nocapture noundef %pvBuffer, i64 noundef %pSize, i64 noundef %pCount) unnamed_addr #3 align 2 {
entry:
  %mFile = getelementptr inbounds i8, ptr %this, i64 8
  %0 = load ptr, ptr %mFile, align 8
  %tobool.not = icmp eq ptr %0, null
  br i1 %tobool.not, label %cond.end, label %cond.true

cond.true:                                        ; preds = %entry
  %call = tail call i64 @fwrite(ptr noundef %pvBuffer, i64 noundef %pSize, i64 noundef %pCount, ptr noundef nonnull %0)
  br label %cond.end

cond.end:                                         ; preds = %entry, %cond.true
  %cond = phi i64 [ %call, %cond.true ], [ 0, %entry ]
  ret i64 %cond
}